(lp0
S'[0.33032694659926143,0.32006807363728346]'
p1
aS'[0.47060046934947075,0.4565248740329127]'
p2
aS'[0.3213916841137193,0.406186488243327]'
p3
aS'[0.22007002364062286,0.30295378607578505]'
p4
aS'[0.32796971450769924,0.3545848254113712]'
p5
aS'[0.6493799898736949,0.6239910837051169]'
p6
aS'[0.31315535103781544,0.39186291911837556]'
p7
aS'[0.10121010520011235,0.10053016834896665]'
p8
aS'[0.10937739580154406,0.15994619605840116]'
p9
aS'[0.14179876344658002,0.2668344552529536]'
p10
aS'[0.2996413573390024,0.3230622282654823]'
p11
aS'[0.22394258512872764,0.2998385408476713]'
p12
aS'[0.46258129426381855,0.37612161260994725]'
p13
aS'[0.29650526224793583,0.3485751059596335]'
p14
aS'[0.2189007783515685,0.4482642349817253]'
p15
aS'[0.514602465967918,0.32650205438408214]'
p16
aS'[0.5265050865303508,0.35497510787706776]'
p17
aS'[0.21461626866286068,0.19965348428592614]'
p18
aS'[0.04269122508299859,0.03422792948769165]'
p19
aS'[0.3461451865511835,0.3087776674861182]'
p20
aS'[0.314510968677552,0.4460345482755921]'
p21
aS'[0.12808663409547985,0.16660815066374823]'
p22
aS'[0.4513418895420852,0.4004086539348228]'
p23
aS'[0.3367273117053533,0.4538642311285921]'
p24
aS'[0.02406818763903753,0.08469864543283401]'
p25
aS'[0.37836405951611235,0.396131449478993]'
p26
aS'[0.11680020300668797,0.14080227375681917]'
p27
aS'[0.45554606242878326,0.29616856958366056]'
p28
aS'[0.24728535660107887,0.2281881458814686]'
p29
aS'[0.05856430380001301,0.09273408750710295]'
p30
aS'[0.48185245147269795,0.31414381329482355]'
p31
aS'[0.30029945963956267,0.17335748528373957]'
p32
aS'[0.5306129552582577,0.5459926073706293]'
p33
aS'[0.0836591297324385,0.10537701091026683]'
p34
aS'[0.4816128715184209,0.5564532858545377]'
p35
aS'[0.5642036946399971,0.5862366305698908]'
p36
aS'[0.0411453838533467,0.06269440740771204]'
p37
aS'[0.603437895454283,0.37918243683495295]'
p38
aS'[0.3060891256943345,0.1179487820665541]'
p39
aS'[0.2001508958992814,0.2303179527957654]'
p40
aS'[0.3953612772772605,0.34353585006430515]'
p41
aS'[0.08497315707185207,0.08287736317061731]'
p42
aS'[0.13554774829924837,0.15336502071067606]'
p43
aS'[0.03917963753541316,0.19626987928243564]'
p44
aS'[0.19192153638337883,0.2675731251000894]'
p45
aS'[0.34009714121912443,0.27117803257735634]'
p46
aS'[0.3582023495203297,0.1791156286933988]'
p47
aS'[0.5920912579644642,0.6130916005387059]'
p48
aS'[0.5351434597098376,0.49668898328550626]'
p49
aS'[0.08812975990163137,0.07030679925498172]'
p50
aS'[0.1289556527500129,0.13407474443543593]'
p51
aS'[0.4062932163100255,0.2880492997663762]'
p52
aS'[0.4575158110414103,0.4060301137471359]'
p53
aS'[0.41716451267373944,0.35243193465023176]'
p54
aS'[0.6365315492805665,0.16993504721898559]'
p55
aS'[0.1363150483949733,0.07012511901894672]'
p56
aS'[0.3001308660391115,0.16257089257035928]'
p57
aS'[0.1790195724724198,0.3094301767709459]'
p58
aS'[0.6214997402306903,0.2120095875138422]'
p59
aS'[0.414057232917004,0.42965437623147673]'
p60
aS'[0.1895032616152493,0.3169871472358868]'
p61
aS'[0.4768843225991806,0.3250353919770363]'
p62
aS'[0.10411360902331665,0.16067084857208783]'
p63
aS'[0.29117628418687835,0.29568791096697794]'
p64
aS'[0.09273408750710295,0.2126852974657019]'
p65
aS'[0.12500194746523838,0.0794343966650965]'
p66
aS'[0.4234453590943257,0.2766490507120163]'
p67
aS'[0.4516327979952936,0.4032156062083123]'
p68
aS'[0.44666842949494784,0.28274207097367204]'
p69
aS'[0.46408026765916843,0.4423039935702203]'
p70
aS'[0.5447179420361675,0.4060956920058193]'
p71
aS'[0.6409662569582187,0.48085306553346463]'
p72
aS'[0.3981189046319726,0.24785925729859556]'
p73
aS'[0.32164125590655807,0.25904764310010675]'
p74
aS'[0.21084328341254657,0.3740881526896563]'
p75
aS'[0.3579533021220491,0.2498135284801362]'
p76
aS'[0.35928265319268043,0.2261502951268782]'
p77
aS'[0.39076599202745216,0.08648057405991094]'
p78
aS'[0.04384242485433691,0.0218631819618301]'
p79
aS'[0.33581319396683096,0.6487596857661909]'
p80
aS'[0.17461031432427312,0.1447028929708642]'
p81
aS'[0.31702634146601105,0.29074046557350725]'
p82
aS'[0.1850280610819945,0.3631958477891772]'
p83
aS'[0.770753129173055,0.582940268477587]'
p84
aS'[0.5065347466372678,0.4060956920058193]'
p85
aS'[0.06994137261551142,0.15608504200539683]'
p86
aS'[0.024873986828066588,0.019146108164739068]'
p87
aS'[0.456395935455687,0.42638007399503425]'
p88
aS'[0.4089369027240854,0.6294854318774089]'
p89
aS'[0.5246417507558381,0.41459630434927225]'
p90
aS'[0.23262605248391202,0.23394555731008213]'
p91
aS'[0.49339943484293447,0.24440374029514741]'
p92
aS'[0.38294689269607707,0.3269556846038454]'
p93
aS'[0.5367574898496518,0.2661019618276309]'
p94
aS'[0.005826468109380962,0.33845346804962256]'
p95
aS'[0.31162424734442296,0.3475131223640196]'
p96
aS'[0.35767149901515205,0.35767149901515205]'
p97
aS'[0.11680020300668797,0.08084949852159898]'
p98
aS'[0.2947094863643563,0.26127798438571076]'
p99
aS'[0.09857630717290441,0.09857630717290441]'
p100
aS'[0.3292200636476653,0.3854777315529217]'
p101
aS'[0.1295385891742306,0.21021072917655279]'
p102
aS'[0.5283571185095332,0.44070898748495646]'
p103
aS'[0.16401317858995168,0.11316571607193171]'
p104
aS'[0.41571500409498,0.274944108625165]'
p105
aS'[0.17337899700715678,0.3025670951142532]'
p106
aS'[0.09673428858248843,0.3120192455204645]'
p107
aS'[0.4706911588747873,0.4773184464629369]'
p108
aS'[0.2817430880021705,0.2512155733690525]'
p109
aS'[0.21325881926070206,0.40575515746599655]'
p110
aS'[0.21356813199347804,0.30211380792630954]'
p111
aS'[0.4323154934021929,0.4323154934021929]'
p112
aS'[0.20721531650748148,0.2760043081394067]'
p113
aS'[0.5573574362736621,0.10958112752086338]'
p114
aS'[0.3008410389125032,0.2869021499012506]'
p115
aS'[0.39799848751410166,0.3564571005519093]'
p116
aS'[0.5179647158264981,0.43442855291608784]'
p117
aS'[0.18053813815769126,0.2654280027160693]'
p118
aS'[0.25181729541727055,0.34116368627704435]'
p119
aS'[0.4657515321309883,0.43117258906533384]'
p120
aS'[0.35377237964611846,0.24596388845655284]'
p121
aS'[0.1578485542778283,0.3484800462520849]'
p122
aS'[0.2126546533071358,0.14314959945983394]'
p123
aS'[0.15090441449404926,0.12873994551501353]'
p124
aS'[0.2271644077460142,0.19306957742774553]'
p125
aS'[0.4465044895943928,0.4353888890071128]'
p126
aS'[0.25332470005113317,0.28966657714966]'
p127
aS'[0.3007209884348735,0.38415062396297656]'
p128
aS'[0.08065394777258779,0.07995651457832494]'
p129
aS'[0.40432925068402054,0.2123599503788612]'
p130
aS'[0.05918993883508202,0.008364536210180254]'
p131
aS'[0.2877369888609946,0.3946517954714075]'
p132
aS'[0.08833740001800396,0.07725609149550089]'
p133
aS'[0.5117028334857251,0.5491355368249036]'
p134
aS'[0.37606311776569823,0.299202757124006]'
p135
aS'[0.4316695255457505,0.34485312207777585]'
p136
aS'[0.41435563380155,0.35258463849565885]'
p137
aS'[0.450535986768369,0.36951184476913335]'
p138
aS'[0.4992249969105188,0.4338962251962053]'
p139
aS'[0.5294654396191857,0.45678804734716444]'
p140
aS'[0.11136801858559055,0.41565325328794933]'
p141
aS'[0.5502883243374053,0.2996934742722849]'
p142
aS'[0.6958559583073408,0.2238241190822466]'
p143
aS'[0.21865430615468928,0.13404360749149105]'
p144
aS'[0.32022723631406874,0.2969978555427293]'
p145
aS'[0.39757778895413587,0.32143847958887967]'
p146
aS'[0.10675214994040151,0.2822094492899801]'
p147
aS'[0.03197852816303854,0.21007768349650896]'
p148
aS'[0.32254001640578667,0.4541026642182665]'
p149
aS'[0.4450330355848598,0.4450330355848598]'
p150
a.