(dp0
I0
(dp1
I0
(dp2
I0
F2.7181146880032894
sI1
F6.497887762221941
sS'mean'
p3
(dp4
ssI1
(dp5
I0
F-9.239265043979156
sI1
F2.741690989322211
sg3
(dp6
ssI2
(dp7
I0
F3.681446667039112
sI1
F-6.212127726945353
sg3
(dp8
ssI3
(dp9
I0
F3.6426171540554058
sI1
F6.876076737954816
sg3
(dp10
ssI4
(dp11
I0
F3.6056030274036024
sI1
F8.287334898060331
sg3
(dp12
ssI5
(dp13
I0
F3.3460977356283714
sI1
F-7.111441516692114
sg3
(dp14
ssI6
(dp15
I0
F-6.489396323765375
sI1
F5.520571787363911
sg3
(dp16
ssI7
(dp17
I0
F-7.146758897013352
sI1
F4.333213805479947
sg3
(dp18
ssI8
(dp19
I0
F-8.186103729025143
sI1
F3.4931770669079185
sg3
(dp20
ssI9
(dp21
I0
F1.0423979217854165
sI1
F-5.73131256983287
sg3
(dp22
ssI10
(dp23
I0
F3.5037281336826682
sI1
F-4.845192007418226
sg3
(dp24
ssI11
(dp25
I0
F3.512796484843602
sI1
F6.43919482859039
sg3
(dp26
ssI12
(dp27
I0
F-9.109215738543497
sI1
F3.9035350009060603
sg3
(dp28
ssI13
(dp29
I0
F1.915071300383028
sI1
F9.010532445765467
sg3
(dp30
ssI14
(dp31
I0
F-6.946264068636154
sI1
F2.3072400578391616
sg3
(dp32
ssI15
(dp33
I0
F3.6930286319601207
sI1
F-6.812414334598543
sg3
(dp34
ssI16
(dp35
I0
F-7.734352230619559
sI1
F5.558656685334271
sg3
(dp36
ssI17
(dp37
I0
F2.7849355608087594
sI1
F-5.80148238275034
sg3
(dp38
ssI18
(dp39
I0
F1.2795981928733613
sI1
F7.687627329906899
sg3
(dp40
ssI19
(dp41
I0
F2.2408438867682943
sI1
F-5.754562619716072
sg3
(dp42
ssI20
(dp43
I0
F-7.448527469622932
sI1
F5.069771997059947
sg3
(dp44
ssI21
(dp45
I0
F1.7422683185922077
sI1
F-5.5106468006811316
sg3
(dp46
ssI22
(dp47
I0
F-7.408926441928109
sI1
F4.750269239387563
sg3
(dp48
ssI23
(dp49
I0
F1.6821245674666145
sI1
F6.904142202659891
sg3
(dp50
ssI24
(dp51
I0
F1.6711798891002754
sI1
F-6.943596356253906
sg3
(dp52
ssI25
(dp53
I0
F4.3982330161899466
sI1
F-7.229055045894633
sg3
(dp54
ssI26
(dp55
I0
F4.314458408178348
sI1
F-7.298638052208529
sg3
(dp56
ssI27
(dp57
I0
F4.240456340793892
sI1
F7.312927535248042
sg3
(dp58
ssI28
(dp59
I0
F-7.468935425278644
sI1
F3.608374083652484
sg3
(dp60
ssI29
(dp61
I0
F-8.474174023953461
sI1
F4.063048930768178
sg3
(dp62
ssI30
(dp63
I0
F3.611864282562294
sI1
F6.92686700359178
sg3
(dp64
ssI31
(dp65
I0
F3.5295166362693218
sI1
F-5.4147917014601115
sg3
(dp66
ssI32
(dp67
I0
F3.5040525155372566
sI1
F-6.517679690409916
sg3
(dp68
ssI33
(dp69
I0
F2.1894165530399876
sI1
F-7.114143325498283
sg3
(dp70
ssI34
(dp71
I0
F-7.8212604671690045
sI1
F3.0751827542250485
sg3
(dp72
ssI35
(dp73
I0
F-11.055291020053838
sI1
F5.584997233499714
sg3
(dp74
ssI36
(dp75
I0
F-7.000901534362325
sI1
F5.038328345800266
sg3
(dp76
ssI37
(dp77
I0
F2.119015721275871
sI1
F7.358912760900595
sg3
(dp78
ssI38
(dp79
I0
F2.7330418578211217
sI1
F6.6824715782309925
sg3
(dp80
ssI39
(dp81
I0
F0.5805232837656922
sI1
F7.206630266435254
sg3
(dp82
ssI40
(dp83
I0
F-5.543233956477897
sI1
F4.088548388013566
sg3
(dp84
ssI41
(dp85
I0
F4.5357335109476296
sI1
F-6.330680085357406
sg3
(dp86
ssI42
(dp87
I0
F3.385559198732958
sI1
F-5.874824380777191
sg3
(dp88
ssI43
(dp89
I0
F1.2708262293027932
sI1
F7.450035911511225
sg3
(dp90
ssI44
(dp91
I0
F-6.75008602520343
sI1
F5.193341053528087
sg3
(dp92
ssI45
(dp93
I0
F2.991022669954353
sI1
F-6.601081568620557
sg3
(dp94
ssI46
(dp95
I0
F2.96630161150546
sI1
F-5.772470557259641
sg3
(dp96
ssI47
(dp97
I0
F1.9381942604618985
sI1
F-3.3947089886899975
sg3
(dp98
ssI48
(dp99
I0
F1.9549557395591588
sI1
F7.1983671178435795
sg3
(dp100
ssI49
(dp101
I0
F-8.323339368939218
sI1
F3.945062377699743
sg3
(dp102
ssI50
(dp103
I0
F1.4030587321751073
sI1
F-6.610297118505748
sg3
(dp104
ssI51
(dp105
I0
F-8.868952974795492
sI1
F4.782282678626406
sg3
(dp106
ssI52
(dp107
I0
F1.4568767687454072
sI1
F-5.687617654991821
sg3
(dp108
ssI53
(dp109
I0
F0.1821978326956124
sI1
F8.478563640811682
sg3
(dp110
ssI54
(dp111
I0
F-9.294434676864773
sI1
F2.531725695592808
sg3
(dp112
ssI55
(dp113
I0
F1.7900749322415703
sI1
F6.696015438803678
sg3
(dp114
ssI56
(dp115
I0
F4.137300327780094
sI1
F-6.672374572098327
sg3
(dp116
ssI57
(dp117
I0
F3.5025999673408004
sI1
F-6.9099843128225436
sg3
(dp118
ssI58
(dp119
I0
F2.144175069758234
sI1
F6.507812348928276
sg3
(dp120
ssI59
(dp121
I0
F1.8546258249292562
sI1
F6.690486087608029
sg3
(dp122
ssI60
(dp123
I0
F2.87996453455022
sI1
F-6.144754485019533
sg3
(dp124
ssI61
(dp125
I0
F-6.312381864396472
sI1
F4.29748998363307
sg3
(dp126
ssI62
(dp127
I0
F2.7575737988454008
sI1
F-5.850913795105033
sg3
(dp128
ssI63
(dp129
I0
F-6.06340795745737
sI1
F2.890667563442938
sg3
(dp130
ssI64
(dp131
I0
F2.1939089489218477
sI1
F-5.646990592042826
sg3
(dp132
ssI65
(dp133
I0
F2.9799702049117744
sI1
F-5.893715125953061
sg3
(dp134
ssI66
(dp135
I0
F-8.265979837368741
sI1
F5.7976507785404765
sg3
(dp136
ssI67
(dp137
I0
F3.74539660922594
sI1
F-5.688461414841775
sg3
(dp138
ssI68
(dp139
I0
F2.0547766670021828
sI1
F6.116079235908252
sg3
(dp140
ssI69
(dp141
I0
F2.3269800504089857
sI1
F6.034223079553113
sg3
(dp142
ssI70
(dp143
I0
F-7.394421490897737
sI1
F4.200074087538617
sg3
(dp144
ssI71
(dp145
I0
F-7.395503677804317
sI1
F2.8203706199262486
sg3
(dp146
ssI72
(dp147
I0
F1.2983398623382418
sI1
F7.700881146218878
sg3
(dp148
ssI73
(dp149
I0
F2.6412884354427075
sI1
F-5.359999387081818
sg3
(dp150
ssI74
(dp151
I0
F1.7625134893031187
sI1
F5.960329102222252
sg3
(dp152
ssI75
(dp153
I0
F2.013693377249999
sI1
F7.458499945956554
sg3
(dp154
ssI76
(dp155
I0
F2.4324811192588784
sI1
F-6.706149612799644
sg3
(dp156
ssI77
(dp157
I0
F1.6638533176196566
sI1
F-5.629444714845551
sg3
(dp158
ssI78
(dp159
I0
F-7.59554592653365
sI1
F2.6910349696499023
sg3
(dp160
ssI79
(dp161
I0
F-5.741697003576619
sI1
F3.945462583871641
sg3
(dp162
ssI80
(dp163
I0
F-7.166486419542068
sI1
F3.9194532032065683
sg3
(dp164
ssI81
(dp165
I0
F-8.602583225985807
sI1
F4.207883710192289
sg3
(dp166
ssI82
(dp167
I0
F1.9811931617675798
sI1
F7.947217708597088
sg3
(dp168
ssI83
(dp169
I0
F1.87794900314174
sI1
F-5.6841711082840325
sg3
(dp170
ssI84
(dp171
I0
F-10.722510276748004
sI1
F2.74006627242551
sg3
(dp172
ssI85
(dp173
I0
F3.9031655351649284
sI1
F-7.039713578682761
sg3
(dp174
ssI86
(dp175
I0
F-9.47562331937528
sI1
F4.009460307638961
sg3
(dp176
ssI87
(dp177
I0
F3.4197253605808413
sI1
F-5.304741579914872
sg3
(dp178
ssI88
(dp179
I0
F-6.580470605586742
sI1
F4.104596471858142
sg3
(dp180
ssI89
(dp181
I0
F2.3334486797056844
sI1
F6.384452800179797
sg3
(dp182
ssI90
(dp183
I0
F3.4880465982786877
sI1
F-7.820721603335606
sg3
(dp184
ssI91
(dp185
I0
F2.1593290054177956
sI1
F-6.451352516731903
sg3
(dp186
ssI92
(dp187
I0
F-7.277504939216017
sI1
F3.602430568185998
sg3
(dp188
ssI93
(dp189
I0
F2.726304201285069
sI1
F-5.853408295817956
sg3
(dp190
ssI94
(dp191
I0
F3.089271767713215
sI1
F5.90871462558961
sg3
(dp192
ssI95
(dp193
I0
F3.864539174632299
sI1
F4.980847015280874
sg3
(dp194
ssI96
(dp195
I0
F-8.371541219673311
sI1
F3.3906395167394976
sg3
(dp196
ssI97
(dp197
I0
F2.4370477192551925
sI1
F5.481250536260181
sg3
(dp198
ssI98
(dp199
I0
F-7.095655841580571
sI1
F3.3373121277393984
sg3
(dp200
ssI99
(dp201
I0
F-7.30545020662877
sI1
F3.0733311992377805
sg3
(dp202
sssS'true_clusters'
p203
(lp204
I1
aI2
aI0
aI1
aI1
aI0
aI2
aI2
aI2
aI0
aI0
aI1
aI2
aI1
aI2
aI0
aI2
aI0
aI1
aI0
aI2
aI0
aI2
aI1
aI0
aI0
aI0
aI1
aI2
aI2
aI1
aI0
aI0
aI0
aI2
aI2
aI2
aI1
aI1
aI1
aI2
aI0
aI0
aI1
aI2
aI0
aI0
aI0
aI1
aI2
aI0
aI2
aI0
aI1
aI2
aI1
aI0
aI0
aI1
aI1
aI0
aI2
aI0
aI2
aI0
aI0
aI2
aI0
aI1
aI1
aI2
aI2
aI1
aI0
aI1
aI1
aI0
aI0
aI2
aI2
aI2
aI2
aI1
aI0
aI2
aI0
aI2
aI0
aI2
aI1
aI0
aI0
aI2
aI0
aI1
aI1
aI2
aI1
aI2
aI2
asS'parameters'
p205
(dp206
S'n_per_experiment'
p207
I100
sS'dim'
p208
I2
sS'mean_max'
p209
I10
sS'experiments'
p210
I1
sS'max_clusters'
p211
I3
sS'stdscale'
p212
F1.0
ss.