(lp0
S'[0.32858420196241184,0.44067647574595176]\n'
p1
aS'[0.41289313665328364,0.4211420590511602]\n'
p2
aS'[0.32913736228280543,0.3535172317794377]\n'
p3
aS'[0.33594092360874706,0.3633158367882385]\n'
p4
aS'[0.5217641504737425,0.29289582940750947]\n'
p5
aS'[0.6351861062556026,0.3511312167034483]\n'
p6
aS'[0.5838633633979128,0.2324161971138047]\n'
p7
aS'[0.3126334943557871,0.28308707746120987]\n'
p8
aS'[0.49965980185532427,0.2751603757156533]\n'
p9
aS'[0.4596960572059334,0.48694754992721134]\n'
p10
aS'[0.36492455110125255,0.29183714080577283]\n'
p11
aS'[0.5208206418560252,0.31650093439397314]\n'
p12
aS'[0.3419463558488973,0.2594429841159442]\n'
p13
aS'[0.46351377574824193,0.39154473027036457]\n'
p14
aS'[0.5152025541411192,0.47777403379827227]\n'
p15
aS'[0.342428081440294,0.3341383595239689]\n'
p16
aS'[0.45526950475973954,0.43037702402047395]\n'
p17
aS'[0.47827417085264823,0.5038761275542554]\n'
p18
aS'[0.4445080152319236,0.3815538155506402]\n'
p19
aS'[0.37435772715105164,0.1801006135057014]\n'
p20
aS'[0.3861337909960095,0.3123936300887692]\n'
p21
aS'[0.40748349597264133,0.36539120600738606]\n'
p22
aS'[0.4087249897002362,0.4076816951398837]\n'
p23
aS'[0.5132540292844591,0.41895743904882954]\n'
p24
aS'[0.32898243247673487,0.4183198348129052]\n'
p25
aS'[0.42785158039395316,0.36858545292280204]\n'
p26
aS'[0.4211418219201009,0.4084740932271257]\n'
p27
aS'[0.47831178888250475,0.4430901303237612]\n'
p28
aS'[0.46949471332543186,0.3664588078865909]\n'
p29
aS'[0.24084156814169075,0.211179004556389]\n'
p30
aS'[0.3592341201499339,0.3962850685364741]\n'
p31
aS'[0.31114617678619816,0.6021031788000993]\n'
p32
aS'[0.403794673162404,0.4847423960767297]\n'
p33
aS'[0.21409380758297528,0.18133815444766282]\n'
p34
aS'[0.4738441117378243,0.40313284265946236]\n'
p35
aS'[0.33022778764799343,0.35686571208824575]\n'
p36
aS'[0.4954969898621286,0.3896396483418566]\n'
p37
aS'[0.40002181198964737,0.381569819939688]\n'
p38
aS'[0.5113340802539461,0.4603409663894174]\n'
p39
aS'[0.45445994320588057,0.45147443404717713]\n'
p40
aS'[0.2982624590545876,0.23163069950147103]\n'
p41
aS'[0.35812983224076766,0.16332915950746765]\n'
p42
aS'[0.3636171727154012,0.4126352363706554]\n'
p43
aS'[0.5311028576349436,0.3668097444498135]\n'
p44
aS'[0.7316402594004802,0.43303155044863656]\n'
p45
aS'[0.4989540150765285,0.3078498469497641]\n'
p46
aS'[0.3711633597108838,0.4300519243235609]\n'
p47
aS'[0.3753192488102881,0.3503098103661761]\n'
p48
aS'[0.44656300319658193,0.34603663018021086]\n'
p49
aS'[0.5050839057405928,0.5342164892433485]\n'
p50
aS'[0.34040357781089575,0.3329196766276836]\n'
p51
aS'[0.48250773251432855,0.3451848213619096]\n'
p52
aS'[0.5565748179747327,0.4997632237648171]\n'
p53
aS'[0.3765105840482321,0.20067508966034522]\n'
p54
aS'[0.3721282770514814,0.34325643631139546]\n'
p55
aS'[0.4752130612340248,0.44762944359149553]\n'
p56
aS'[0.3533033292617672,0.15080326080096385]\n'
p57
aS'[0.6484659491335273,0.2357262186177506]\n'
p58
aS'[0.2844352860285455,0.17959272561889345]\n'
p59
aS'[0.4721564861897591,0.3762024672169116]\n'
p60
aS'[0.6697626842082606,0.34915171138780193]\n'
p61
aS'[0.38273275687107644,0.4526585033581301]\n'
p62
aS'[0.5077996942740849,0.28151588115876286]\n'
p63
aS'[0.39175842727479804,0.32523086772900006]\n'
p64
aS'[0.455062222088369,0.44971304897014636]\n'
p65
aS'[0.33129191568494487,0.25075035543151997]\n'
p66
aS'[0.39186867283731164,0.19075310441877674]\n'
p67
aS'[0.3701649620488118,0.3530161663206317]\n'
p68
aS'[0.41618738769146363,0.4680139545023588]\n'
p69
aS'[0.4188229114493857,0.28654147071352243]\n'
p70
aS'[0.31030637916371867,0.24672922807964254]\n'
p71
aS'[0.5954210843516085,0.32568917770589206]\n'
p72
aS'[0.4560780422963426,0.24120662293401932]\n'
p73
aS'[0.45164176635563186,0.4240734723196111]\n'
p74
aS'[0.3620734746579541,0.5801541073348868]\n'
p75
aS'[0.43633843060811284,0.34750719170905464]\n'
p76
aS'[0.25271372142018744,0.3715856281066361]\n'
p77
aS'[0.45882514107940636,0.36635159029884923]\n'
p78
aS'[0.7705560257919024,0.40258213416512273]\n'
p79
aS'[0.5183155965914792,0.34771220654412627]\n'
p80
aS'[0.41290823318255104,0.31669435152368747]\n'
p81
aS'[0.5204499208449771,0.15133502839108098]\n'
p82
aS'[0.38952780889582017,0.411510885297166]\n'
p83
aS'[0.4467326668976818,0.6865201029768824]\n'
p84
aS'[0.40927097088053355,0.328438223975186]\n'
p85
aS'[0.391556366678995,0.41597426502210505]\n'
p86
aS'[0.5548477000396986,0.4796701911112328]\n'
p87
aS'[0.3563466644287811,0.37318472809865005]\n'
p88
aS'[0.40722743792942445,0.3966877099391383]\n'
p89
aS'[0.3699384751833914,0.4436525698355808]\n'
p90
aS'[0.33790333010410323,0.41955051745911465]\n'
p91
aS'[0.506580188358929,0.4537167143332623]\n'
p92
aS'[0.37961181460077414,0.2710157045540201]\n'
p93
aS'[0.35833282341143285,0.2896791136413258]\n'
p94
aS'[0.5869918063241878,0.4013999891473707]\n'
p95
aS'[0.45082706131362504,0.38330326307299706]\n'
p96
aS'[0.4588100499708365,0.42061810696690627]\n'
p97
aS'[0.5286796765222717,0.5050353826191829]\n'
p98
aS'[0.628038769794702,0.42770002816616737]\n'
p99
aS'[0.5556016286665423,0.5354394980662703]\n'
p100
a.