(lp0
S'[0.33118422392272334,0.3589827990426114]\n'
p1
aS'[0.4368262893289247,0.35820293012114235]\n'
p2
aS'[0.349786938046532,0.4861953999728876]\n'
p3
aS'[0.33968944940274703,0.4344547348016063]\n'
p4
aS'[0.5033627494707598,0.4011844167185746]\n'
p5
aS'[0.49504296748979054,0.4425415813051673]\n'
p6
aS'[0.41848357850605644,0.425653077142489]\n'
p7
aS'[0.38486360769135025,0.3242673738993008]\n'
p8
aS'[0.3998674387881318,0.46876525028201677]\n'
p9
aS'[0.4651893023980306,0.47668925583306243]\n'
p10
aS'[0.3305875101912423,0.4661296583361052]\n'
p11
aS'[0.37434782954457557,0.3824906306051669]\n'
p12
aS'[0.4893536647195118,0.4610190712698464]\n'
p13
aS'[0.4006456701579321,0.4432730167609783]\n'
p14
aS'[0.4141952767321662,0.42207892519069]\n'
p15
aS'[0.4561135522585141,0.43643233005473225]\n'
p16
aS'[0.30722033533414156,0.40502803368409757]\n'
p17
aS'[0.36300048277195995,0.4271360027540501]\n'
p18
aS'[0.41740557246432825,0.4289143475586346]\n'
p19
aS'[0.40505533710020425,0.43723007762395316]\n'
p20
aS'[0.3670678199582293,0.4538166621307404]\n'
p21
aS'[0.4683442834239726,0.46935327564470875]\n'
p22
aS'[0.3792720264380919,0.4865851505504329]\n'
p23
aS'[0.4422400354896148,0.4997609627797584]\n'
p24
aS'[0.402841278490105,0.4422716453059943]\n'
p25
aS'[0.33991635303647266,0.3846485118677389]\n'
p26
aS'[0.3002327532591484,0.28246148137528543]\n'
p27
aS'[0.40795847869020724,0.5158006847441055]\n'
p28
aS'[0.3442035866971446,0.37702967933145115]\n'
p29
aS'[0.443302583541451,0.39468078108317334]\n'
p30
aS'[0.3494125114141685,0.42228795887687287]\n'
p31
aS'[0.45096441288677025,0.4507310163453036]\n'
p32
aS'[0.36672672655502314,0.419205238170643]\n'
p33
aS'[0.44359479981313427,0.4752109232533184]\n'
p34
aS'[0.346764358097133,0.3473433357770626]\n'
p35
aS'[0.4498699171574943,0.42961284854013954]\n'
p36
aS'[0.4076367975453149,0.42612650736683627]\n'
p37
aS'[0.5488839021261305,0.5366885139294741]\n'
p38
aS'[0.6005827283738152,0.36905588720588034]\n'
p39
aS'[0.485103195843673,0.5549997373456531]\n'
p40
aS'[0.4582555829771863,0.558838761495814]\n'
p41
aS'[0.3269413684946418,0.41612032010300276]\n'
p42
aS'[0.5317895681361569,0.4824814982719943]\n'
p43
aS'[0.4312191289252166,0.5140767567994174]\n'
p44
aS'[0.244325199188498,0.3254980169512978]\n'
p45
aS'[0.4681655961059662,0.40701632049027997]\n'
p46
aS'[0.3283091531914124,0.4038256658832407]\n'
p47
aS'[0.3650141664511938,0.421054728881073]\n'
p48
aS'[0.36870352150674834,0.41736324133496583]\n'
p49
aS'[0.34105192765204123,0.33208227973737053]\n'
p50
aS'[0.3761068460180856,0.36630939240492577]\n'
p51
aS'[0.38339439000247305,0.4123156950731033]\n'
p52
aS'[0.4091577407988104,0.3631037573416922]\n'
p53
aS'[0.3529286030995124,0.3111051872113303]\n'
p54
aS'[0.4102054351775448,0.4202929464255502]\n'
p55
aS'[0.45514236420450416,0.4330759947063852]\n'
p56
aS'[0.3973922920044381,0.5101095046178685]\n'
p57
aS'[0.5369415842921603,0.31325431354025873]\n'
p58
aS'[0.4392971026921626,0.5950434167878244]\n'
p59
aS'[0.4091573465152572,0.47946534324470597]\n'
p60
aS'[0.48077455499464494,0.5263354866403448]\n'
p61
aS'[0.4087728090388378,0.3079616109689061]\n'
p62
aS'[0.4673418791374464,0.4044011296402257]\n'
p63
aS'[0.5139549700876269,0.4356205578844814]\n'
p64
aS'[0.35059449751259025,0.4209042100967433]\n'
p65
aS'[0.4247714897837373,0.45683758099272426]\n'
p66
aS'[0.41447733115672836,0.4814147944782491]\n'
p67
aS'[0.3441522287361213,0.38146168521290763]\n'
p68
aS'[0.40084454527077085,0.3319452252060329]\n'
p69
aS'[0.5195557593958647,0.37263389666663976]\n'
p70
aS'[0.5960843287146291,0.38496905985389246]\n'
p71
aS'[0.2135384797523179,0.4144205334778315]\n'
p72
aS'[0.4152405196232622,0.48058087909263386]\n'
p73
aS'[0.4701201527233848,0.4098055059979603]\n'
p74
aS'[0.4509974420530754,0.40528279029702735]\n'
p75
aS'[0.44153071013335604,0.38220569955867745]\n'
p76
aS'[0.23937963380323454,0.2665490091944437]\n'
p77
aS'[0.41378928448886604,0.48405809898164265]\n'
p78
aS'[0.46359166020488246,0.3865183495987672]\n'
p79
aS'[0.3564940012152653,0.3975745617324748]\n'
p80
aS'[0.37409014904654353,0.3619342823932305]\n'
p81
aS'[0.5243333674023786,0.4866684144949391]\n'
p82
aS'[0.3414447979267046,0.34380953622502824]\n'
p83
aS'[0.30365238308676706,0.4542695619298679]\n'
p84
aS'[0.3876457608854537,0.6643484712589162]\n'
p85
aS'[0.3628443464833737,0.4571076366912752]\n'
p86
aS'[0.2801994806118452,0.36718297081005397]\n'
p87
aS'[0.3835641843130992,0.34962262245238834]\n'
p88
aS'[0.37861334827728893,0.3672272638600124]\n'
p89
aS'[0.49539383987285013,0.4420050101747468]\n'
p90
aS'[0.3775708602567989,0.4552990361458802]\n'
p91
aS'[0.2870468688324508,0.32322675003573]\n'
p92
aS'[0.2895917624664987,0.46855190313033873]\n'
p93
aS'[0.44041216660131316,0.46657007853273824]\n'
p94
aS'[0.3668421518014431,0.4678627906836551]\n'
p95
aS'[0.5159373904819006,0.5606430931355088]\n'
p96
aS'[0.39423957919589553,0.393267371773001]\n'
p97
aS'[0.6211913114561021,0.31558666185389117]\n'
p98
aS'[0.3448002264596875,0.38010779120787347]\n'
p99
aS'[0.3509245158964882,0.4041543524924413]\n'
p100
a.