(lp0
S'[0.49545094190041117,0.5562444532601536]\n'
p1
aS'[0.3999850699543991,0.3621059624166896]\n'
p2
aS'[0.5573902557111101,0.39731430761811704]\n'
p3
aS'[0.5068420996545837,0.5311467982353553]\n'
p4
aS'[0.3622272350836108,0.4198847966658681]\n'
p5
aS'[0.4403492309473993,0.3578799478327709]\n'
p6
aS'[0.6952785452831527,0.40236020184167903]\n'
p7
aS'[0.4253031257411687,0.5575782835169395]\n'
p8
aS'[0.3136620109148087,0.46366915904182926]\n'
p9
aS'[0.4860213813617175,0.5151796861909984]\n'
p10
aS'[0.4546165273608252,0.4411097646310893]\n'
p11
aS'[0.4303719073014967,0.45414886311270947]\n'
p12
aS'[0.284793862972716,0.3552124094248099]\n'
p13
aS'[0.47173139381445106,0.39342160827387274]\n'
p14
aS'[0.41521893342024735,0.520563833788808]\n'
p15
aS'[0.3610194596583743,0.37364918580790046]\n'
p16
aS'[0.331342145982653,0.3443540855533331]\n'
p17
aS'[0.4199397041799408,0.30616096546191424]\n'
p18
aS'[0.4180195453334848,0.3973026763851588]\n'
p19
aS'[0.5187564754267819,0.588738524143161]\n'
p20
aS'[0.5294902035468884,0.5696553295436885]\n'
p21
aS'[0.35508001810387335,0.48353254794049333]\n'
p22
aS'[0.3523202652296186,0.6605838676918891]\n'
p23
aS'[0.3870550528137084,0.3539862723999068]\n'
p24
aS'[0.39773582362784826,0.4397000947316326]\n'
p25
aS'[0.4610491434657828,0.46454499794529897]\n'
p26
aS'[0.32614217463894296,0.41707909641134727]\n'
p27
aS'[0.455999501604124,0.5283846571785197]\n'
p28
aS'[0.44929126424169713,0.5448001000685813]\n'
p29
aS'[0.2921131530756392,0.3095005040892124]\n'
p30
aS'[0.5562350754465001,0.5099467388271466]\n'
p31
aS'[0.3401007683961768,0.3351743759270599]\n'
p32
aS'[0.3800644809475061,0.43251558283095065]\n'
p33
aS'[0.4107549210275361,0.45617265119473355]\n'
p34
aS'[0.30401550794457266,0.323213354568632]\n'
p35
aS'[0.39286976087632525,0.5757152402356799]\n'
p36
aS'[0.3402831926450782,0.28657698064441667]\n'
p37
aS'[0.3463169525355522,0.2959368766761413]\n'
p38
aS'[0.4301755675278426,0.37801016471089083]\n'
p39
aS'[0.3113835612203515,0.4885913716749271]\n'
p40
aS'[0.4985985560659634,0.4886240600251336]\n'
p41
aS'[0.447449309261313,0.5074311396288205]\n'
p42
aS'[0.49732767994858273,0.450040705187422]\n'
p43
aS'[0.5313176817118598,0.5594264113439933]\n'
p44
aS'[0.3070035749444207,0.36061099919475165]\n'
p45
aS'[0.38540847935641936,0.3914399743107479]\n'
p46
aS'[0.4804572179626709,0.794897104519654]\n'
p47
aS'[0.4858132254435004,0.4391381928844897]\n'
p48
aS'[0.4586458583503547,0.47714441248351064]\n'
p49
aS'[0.42413394593680387,0.47775157729982715]\n'
p50
aS'[0.4519731006598093,0.338235671930459]\n'
p51
aS'[0.661577465402098,0.36181518832230375]\n'
p52
aS'[0.4198273027284422,0.4374037230093973]\n'
p53
aS'[0.7338053992516815,0.45205874316427247]\n'
p54
aS'[0.3384717274262096,0.392513014846452]\n'
p55
aS'[0.41208001045888326,0.3615582970739501]\n'
p56
aS'[0.5248595342227935,0.4849794604519679]\n'
p57
aS'[0.4694698195759323,0.5999077759052468]\n'
p58
aS'[0.25505234497833307,0.3328640804635861]\n'
p59
aS'[0.3785869645720881,0.3892320101313899]\n'
p60
aS'[0.35510109226121284,0.41000850580748055]\n'
p61
aS'[0.3112754762131365,0.4160762307059442]\n'
p62
aS'[0.4814413002456255,0.40367937493487244]\n'
p63
aS'[0.5413995087301152,0.5868867591097827]\n'
p64
aS'[0.548623364956905,0.5859566922088273]\n'
p65
aS'[0.3802406396017818,0.3857357938787377]\n'
p66
aS'[0.27507046324112316,0.3596223752925506]\n'
p67
aS'[0.38772940064958494,0.3728347323482443]\n'
p68
aS'[0.4122067053295235,0.3975274658717145]\n'
p69
aS'[0.3888297300094444,0.5230498376039094]\n'
p70
aS'[0.4113289000392047,0.37275250038825475]\n'
p71
aS'[0.3518784354958614,0.4463832197474921]\n'
p72
aS'[0.4130057320225849,0.476655512934785]\n'
p73
aS'[0.34867300710731414,0.3447858978150089]\n'
p74
aS'[0.5303861396919367,0.5096553697998213]\n'
p75
aS'[0.34307518862197534,0.3732369808198397]\n'
p76
aS'[0.3338859421792676,0.3639359627507594]\n'
p77
aS'[0.38407427030015623,0.39836662197224276]\n'
p78
aS'[0.4701662472867572,0.4396941384369537]\n'
p79
aS'[0.5157796728898388,0.45958683033398984]\n'
p80
aS'[0.3989355028091756,0.29110047683633145]\n'
p81
aS'[0.41289864224550904,0.4071330124980519]\n'
p82
aS'[0.3101135671706149,0.3161008973221611]\n'
p83
aS'[0.3191565539989789,0.3276370333737268]\n'
p84
aS'[0.4750936243099576,0.5022424889913195]\n'
p85
aS'[0.4262373794498311,0.4299062934322347]\n'
p86
aS'[0.4767894418021077,0.484593780273836]\n'
p87
aS'[0.5927272727272724,0.586994158859602]\n'
p88
aS'[0.4680402208104023,0.4521408371845924]\n'
p89
aS'[0.39310318919228104,0.3447525641100711]\n'
p90
aS'[0.7196463568114507,0.42487055370966903]\n'
p91
aS'[0.43929338594724465,0.49289834698725066]\n'
p92
aS'[0.3602824259862192,0.3088955840672854]\n'
p93
aS'[0.4868373829874865,0.4952346882106956]\n'
p94
aS'[0.4028655710071636,0.39676607079682824]\n'
p95
aS'[0.3824617405022584,0.41110318179050515]\n'
p96
aS'[0.4149257276722267,0.41746807085939575]\n'
p97
aS'[0.4256501960570185,0.5666641266709438]\n'
p98
aS'[0.49358469605613825,0.47033987791629833]\n'
p99
aS'[0.46599336316603845,0.4963092445529988]\n'
p100
a.