(lp0
S'[0.40836893799779594,0.6601954696833209]\n'
p1
aS'[0.24456644695307456,0.3655111765504597]\n'
p2
aS'[0.31552864107082895,0.37239219057931533]\n'
p3
aS'[0.4412967756259084,0.4138652042827774]\n'
p4
aS'[0.37594587114364264,0.45363949022755007]\n'
p5
aS'[0.3567131878056675,0.331537864521136]\n'
p6
aS'[0.38896940268320784,0.4030528197723324]\n'
p7
aS'[0.2295812999675949,0.475616730902387]\n'
p8
aS'[0.4267806827153209,0.4585111369673284]\n'
p9
aS'[0.5814674796494789,0.3934383430510833]\n'
p10
aS'[0.454628981791487,0.45538028336388975]\n'
p11
aS'[0.3491637043003748,0.3726848722968343]\n'
p12
aS'[0.5018789776624206,0.49021474148948585]\n'
p13
aS'[0.438436281364343,0.4316435009142244]\n'
p14
aS'[0.3543636436370874,0.4073602830199086]\n'
p15
aS'[0.3191951575134837,0.29124138509385944]\n'
p16
aS'[0.4235005733959303,0.40718151156391136]\n'
p17
aS'[0.31078342974752315,0.3964878925444552]\n'
p18
aS'[0.2880752132589896,0.5080460669675264]\n'
p19
aS'[0.4246049196782595,0.335280663590499]\n'
p20
aS'[0.4557575757575755,0.33051551584665906]\n'
p21
aS'[0.5303796657916638,0.4243802183077776]\n'
p22
aS'[0.3557534236080585,0.6163873588412222]\n'
p23
aS'[0.47273051609692873,0.42198916891100735]\n'
p24
aS'[0.3619310625773967,0.36078925859144256]\n'
p25
aS'[0.3641071710835507,0.4082521737756751]\n'
p26
aS'[0.3656887299347946,0.390873153948907]\n'
p27
aS'[0.6401155992317618,0.36620089227365893]\n'
p28
aS'[0.3435337850247842,0.41831797041759694]\n'
p29
aS'[0.5612095521748208,0.5224837254865059]\n'
p30
aS'[0.667213055297301,0.5245738841639204]\n'
p31
aS'[0.5385665202140519,0.4603213375253046]\n'
p32
aS'[0.3573008328521731,0.3746990344342501]\n'
p33
aS'[0.4652033744681516,0.46760150033879444]\n'
p34
aS'[0.35617423644369567,0.4062621065507046]\n'
p35
aS'[0.4842736386868486,0.4404421085253986]\n'
p36
aS'[0.4650037280147983,0.43414937822990596]\n'
p37
aS'[0.38937556870308093,0.44651644147599756]\n'
p38
aS'[0.39530284139309335,0.44843778433590975]\n'
p39
aS'[0.41489555089083574,0.45196054590423523]\n'
p40
aS'[0.4859839442896076,0.434582498939202]\n'
p41
aS'[0.4804646283444786,0.47060320835302316]\n'
p42
aS'[0.4583855644175726,0.4488460696559593]\n'
p43
aS'[0.42443248905465863,0.4202257859763614]\n'
p44
aS'[0.43291869914238185,0.44794004218018296]\n'
p45
aS'[0.42176190634883587,0.44094756824516435]\n'
p46
aS'[0.47536482558114407,0.5144818108995324]\n'
p47
aS'[0.33731278007892945,0.4282250035242448]\n'
p48
aS'[0.365768485080124,0.39055695874797874]\n'
p49
aS'[0.43095466342444266,0.4199928133789669]\n'
p50
aS'[0.28713011168546226,0.29260505302149203]\n'
p51
aS'[0.4850489077062211,0.44393096104000457]\n'
p52
aS'[0.32848770052990256,0.46215896325198613]\n'
p53
aS'[0.2965079353113342,0.32131138605399806]\n'
p54
aS'[0.38874539304701394,0.4406861117904621]\n'
p55
aS'[0.4406932631788217,0.38554986903194094]\n'
p56
aS'[0.5020446991297581,0.5748421276270937]\n'
p57
aS'[0.4286782731541111,0.41083204627522524]\n'
p58
aS'[0.35154752085817065,0.4105620117890085]\n'
p59
aS'[0.37366325300892317,0.39068618478113937]\n'
p60
aS'[0.511678776906654,0.42596790700436865]\n'
p61
aS'[0.48048750703153986,0.42923948123402184]\n'
p62
aS'[0.32420445844182677,0.30932666594755037]\n'
p63
aS'[0.31385744682592875,0.5080790368705351]\n'
p64
aS'[0.3009142918248407,0.4160223054353286]\n'
p65
aS'[0.4638050882349546,0.43727071875657403]\n'
p66
aS'[0.42912335836925314,0.43137580251956015]\n'
p67
aS'[0.5386047320483498,0.49841058892370516]\n'
p68
aS'[0.38022419767536525,0.4190891445436532]\n'
p69
aS'[0.45097080533647627,0.43403179504006867]\n'
p70
aS'[0.3435014422743028,0.4206160638531116]\n'
p71
aS'[0.3561721583799128,0.3838306512007187]\n'
p72
aS'[0.42989603964171913,0.453863259443365]\n'
p73
aS'[0.3944504216480645,0.45547567736522593]\n'
p74
aS'[0.38408865949525,0.3602331744700961]\n'
p75
aS'[0.32893930589277676,0.43189956483410663]\n'
p76
aS'[0.4078006381784766,0.33017637495824587]\n'
p77
aS'[0.42422624436492806,0.41237335310131534]\n'
p78
aS'[0.42031615098167013,0.44080808080808054]\n'
p79
aS'[0.3806958556296951,0.42025564942845195]\n'
p80
aS'[0.4266395460590869,0.44080808080808054]\n'
p81
aS'[0.5129870991659269,0.5793625101985245]\n'
p82
aS'[0.458486978786663,0.5005223148647316]\n'
p83
aS'[0.35835524315429856,0.438736327334517]\n'
p84
aS'[0.44556888042254716,0.46876391825528296]\n'
p85
aS'[0.42533635728049357,0.4780193739297716]\n'
p86
aS'[0.2749739078941283,0.40645001432938455]\n'
p87
aS'[0.47169834502586255,0.43931703164454355]\n'
p88
aS'[0.4302002234401367,0.43900788912917793]\n'
p89
aS'[0.3480538820129761,0.32466213454245846]\n'
p90
aS'[0.33369712698670323,0.4753773641291307]\n'
p91
aS'[0.36916460033486087,0.41398057253509396]\n'
p92
aS'[0.27284536055956565,0.2764496910039593]\n'
p93
aS'[0.4753400192334109,0.4883075703527544]\n'
p94
aS'[0.4131781197411561,0.305535576717141]\n'
p95
aS'[0.5660606060606058,0.5660606060606058]\n'
p96
aS'[0.30798418972332,0.29816725704604935]\n'
p97
aS'[0.4647771633967091,0.40196588835731467]\n'
p98
aS'[0.3410820375310158,0.4630291152270834]\n'
p99
aS'[0.3544903743839045,0.34062743085751757]\n'
p100
a.