(lp0
S'[0.5307243317912583,0.5211696674408246,0.5342116029466606]'
p1
aS'[0.5180305536159489,0.46300904019403016,0.6523505682141646]'
p2
aS'[0.48430971770545844,0.47148532033486834,0.455216035619486]'
p3
aS'[0.5127462778428897,0.570198730187594,0.517689063139002]'
p4
aS'[0.5718768693479572,0.4785283474207845,0.7229583382397725]'
p5
aS'[0.6189001464886545,0.5751325591490498,0.6388323592343331]'
p6
aS'[0.510379423781626,0.5102912502347957,0.5137953504844188]'
p7
aS'[0.5818884235800679,0.5650395083523728,0.79225440694852]'
p8
aS'[0.5289713420869461,0.5449839879029822,0.5033816230812086]'
p9
aS'[0.4926266271675249,0.5032095969702778,0.6419536740636337]'
p10
aS'[0.5144436189515754,0.5106931272419065,0.6786222317590228]'
p11
aS'[0.529974543595428,0.5432021228557605,0.5331919091547898]'
p12
aS'[0.5429519674639323,0.4875909292328975,0.5909134604279556]'
p13
aS'[0.4991558802074845,0.5232539295728045,0.6560396896152543]'
p14
aS'[0.5462255260207771,0.5256582850666324,0.5197449375822951]'
p15
aS'[0.547808779200445,0.5577382252163002,0.5263964045714674]'
p16
aS'[0.51563805960792,0.5157172769180249,0.677631738961133]'
p17
aS'[0.5231603643522446,0.5310977218794491,0.535866460071456]'
p18
aS'[0.620244355611053,0.5037420381235822,0.6371838515104412]'
p19
aS'[0.49146332253338354,0.46127700501579827,0.532138133737577]'
p20
aS'[0.5398151925272393,0.5476841199529778,0.5258121448199116]'
p21
aS'[0.552432789248189,0.4229253656821023,0.5382715680337572]'
p22
aS'[0.598029266183086,0.5920906994757821,0.6537542483340902]'
p23
aS'[0.4912726922362367,0.5041677658208082,0.456135674114331]'
p24
aS'[0.49300015578072076,0.4932933744562753,0.757049866111827]'
p25
aS'[0.5943293042162381,0.5104838609584018,0.7403124644358348]'
p26
aS'[0.6001311437535383,0.6019415684010048,0.7509800022049165]'
p27
aS'[0.6832113389107153,0.48192545857573904,0.8991127930117447]'
p28
aS'[0.5473622560970466,0.4530502230078448,0.7238350192417395]'
p29
aS'[0.5746997685743367,0.4895243059491071,0.7083837653989358]'
p30
aS'[0.5269526724441523,0.5178612109276165,0.6602642806629921]'
p31
aS'[0.521754664178958,0.5429216092674295,0.553015987918841]'
p32
aS'[0.5353215316821739,0.47573187027608443,0.5012949797546702]'
p33
aS'[0.6229036395139375,0.476599541147104,0.6070494013019208]'
p34
aS'[0.5470819646755591,0.4738507252013864,0.770382802509572]'
p35
aS'[0.5617065556228142,0.49950905219997477,0.50154291694869]'
p36
aS'[0.5196481739896782,0.5255332160830638,0.7876535086271859]'
p37
aS'[0.6220142138210356,0.5832720756598,0.5238659207761449]'
p38
aS'[0.5627971871496257,0.4882791597395777,0.84730151523717]'
p39
aS'[0.5077780830457378,0.5103656196300356,0.4731051485630974]'
p40
aS'[0.5455305181142812,0.5506743116894143,0.518188304471468]'
p41
aS'[0.4949032223370909,0.4783714486642383,0.6458280059076983]'
p42
aS'[0.5303761585175202,0.43969363026146674,0.6023307847994502]'
p43
aS'[0.5516491015996929,0.5666674529682468,0.5094210230119249]'
p44
aS'[0.5745930433137352,0.5489350184288986,0.7570853804211434]'
p45
aS'[0.5233127629398306,0.5297747814440773,0.6324403118493708]'
p46
aS'[0.5600221545222038,0.7105563297647784,0.8355695980871456]'
p47
aS'[0.45803475330506765,0.46120288943627014,0.5295815292005029]'
p48
aS'[0.5477016109849695,0.5531945255389569,0.5373791678354408]'
p49
aS'[0.5531097728746899,0.5349286595120347,0.5240084183045401]'
p50
aS'[0.5266125565708684,0.4391833634214749,0.7167697469307347]'
p51
aS'[0.5905526541227512,0.6055748476475588,0.5682525968659593]'
p52
aS'[0.5441484570680175,0.5680134646953564,0.6576160691625954]'
p53
aS'[0.4961994821306862,0.5908291456778885,0.6161566125744559]'
p54
aS'[0.5561092115924694,0.5679302087075487,0.5154928581595247]'
p55
aS'[0.5386262969202513,0.4772349501485801,0.7272566398146715]'
p56
aS'[0.4798255095395923,0.47933024031666754,0.4533641664823262]'
p57
aS'[0.5269734845155294,0.5351911776491037,0.49068332733348624]'
p58
aS'[0.5483354116343188,0.5544294344525597,0.7574325279103613]'
p59
aS'[0.48516946033675445,0.48841768569339233,0.5364629025170794]'
p60
aS'[0.6095365552882389,0.6235614657185338,0.6043987164475876]'
p61
aS'[0.6069054008184498,0.5952070806354537,0.6077466320480486]'
p62
aS'[0.4639213022441492,0.49013862334359876,0.5741131395055937]'
p63
aS'[0.5169721097584664,0.5038009614165518,0.8195162754376893]'
p64
aS'[0.4780447870714389,0.49655306056415277,0.5501737041790827]'
p65
aS'[0.5455485784451644,0.5631676988000429,0.5808181878356609]'
p66
aS'[0.5669965664828378,0.502276032503645,0.5912895632738222]'
p67
aS'[0.5181874128760834,0.5186351161349406,0.4387716985444794]'
p68
aS'[0.5026151020697819,0.5287668727930689,0.6010603984916448]'
p69
aS'[0.49371233403486564,0.4609477605518362,0.6954688796115287]'
p70
aS'[0.5241988112841978,0.45377491959677846,0.7267901245219764]'
p71
aS'[0.5988357522529194,0.5201092826622542,0.8096399271061853]'
p72
aS'[0.5037062726822347,0.4942936781140529,0.6249659994182869]'
p73
aS'[0.5107771592459881,0.44919096805190184,0.7626168547818808]'
p74
aS'[0.5302376912401672,0.4181869669196201,0.6851294753513326]'
p75
aS'[0.5664987498636224,0.6738889093533694,0.8317530672142543]'
p76
aS'[0.5843658796238186,0.5841635220876595,0.6676426548961667]'
p77
aS'[0.533250955781868,0.534101040676149,0.5305362628276064]'
p78
aS'[0.5215358963993341,0.5381385837328528,0.487449665419072]'
p79
aS'[0.5575167171531593,0.4943882857715248,0.4883399449204693]'
p80
aS'[0.49556069797412483,0.627080274204231,0.8344916122470599]'
p81
aS'[0.6002672252791563,0.44614618286541474,0.7128564345782145]'
p82
aS'[0.497079713353197,0.4715853830711637,0.8383996824610872]'
p83
aS'[0.5609251448344678,0.561817409045931,0.4915845529470682]'
p84
aS'[0.5405612288331697,0.5496211572326357,0.5154545040703264]'
p85
aS'[0.4747649007641843,0.35898571245218275,0.5822142144889095]'
p86
aS'[0.5541756853194787,0.5307681342014576,0.6138909067339016]'
p87
aS'[0.5459726902933365,0.5554667757248052,0.6010005366696798]'
p88
aS'[0.5449818292343811,0.5518402809728351,0.544567552024725]'
p89
aS'[0.5381778425496238,0.48747108046824095,0.6459489464546382]'
p90
aS'[0.4571031343044483,0.4730203889574781,0.45902163054841066]'
p91
aS'[0.47580119658662606,0.4377320746288406,0.5201138793212962]'
p92
aS'[0.5981807092104299,0.5764511158731345,0.5628847584452898]'
p93
aS'[0.5579792424922992,0.559313103572046,0.6756367992525687]'
p94
aS'[0.5389289384742039,0.5405507195724524,0.6728517113264647]'
p95
aS'[0.6108157752409921,0.5785362685100773,0.6046710391215148]'
p96
aS'[0.47383438221969904,0.4694209971861683,0.49370795866423384]'
p97
aS'[0.5869094510419204,0.5544475468640226,0.6062906675020463]'
p98
aS'[0.5845535647501734,0.521744388976949,0.5943201241978975]'
p99
aS'[0.5420403132707358,0.5258489806155896,0.6083375549134249]'
p100
aS'[0.5559335172352895,0.52804594672259,0.5389427643063891]'
p101
aS'[0.5319946133044173,0.4210794123430562,0.7636526839932557]'
p102
aS'[0.5731352761259842,0.5310957914616371,0.5568497278132166]'
p103
aS'[0.5567732979214597,0.5045560863678223,0.5312251358046101]'
p104
aS'[0.5492727675430132,0.5264379851050577,0.5270817519644818]'
p105
aS'[0.6379147001840035,0.585194933699339,0.8315605509553653]'
p106
aS'[0.5473789398354761,0.5278195000589018,0.5375262032058585]'
p107
aS'[0.5403216865218072,0.4823570301831998,0.4950861726808973]'
p108
aS'[0.5476351046900734,0.5405507195724524,0.6603025187026705]'
p109
aS'[0.5260555580398552,0.5295294597943675,0.5116429006090359]'
p110
aS'[0.5587620145107,0.8605951797986358,0.6928244344261316]'
p111
aS'[0.5614997226152739,0.462665021749116,0.6932133006217347]'
p112
aS'[0.5593083199365072,0.5712757525087587,0.5394689008008164]'
p113
aS'[0.507238313465106,0.4322623305678313,0.5947287803133819]'
p114
aS'[0.5182557542561151,0.4972706994461525,0.5838905898747763]'
p115
aS'[0.5386610536932999,0.4773721841486792,0.6693788496766677]'
p116
aS'[0.4745916753618055,0.45262874207139625,0.718659772796894]'
p117
aS'[0.5252817855286047,0.48948220364199124,0.8313307662133679]'
p118
aS'[0.515078455851141,0.5214255864375644,0.6179006124110307]'
p119
aS'[0.644218797183828,0.5564120511145731,0.7379578098137995]'
p120
aS'[0.5669508209524357,0.5061620360845035,0.5339257702002896]'
p121
aS'[0.5844066177630821,0.4996948424914268,0.6896670396489829]'
p122
aS'[0.5112064600032342,0.5258489806155896,0.5297747814440773]'
p123
aS'[0.49369509560800673,0.5098735602722556,0.48192261739397013]'
p124
aS'[0.5940207777478936,0.7533309664227935,0.8039615374480491]'
p125
aS'[0.5288953728323681,0.5152344990742019,0.5197639655069572]'
p126
aS'[0.6026664306693305,0.521925089620794,0.6895534136475467]'
p127
aS'[0.49860835887581423,0.48791934463257725,0.6243489155303865]'
p128
aS'[0.5540433458919843,0.5720717257042154,0.5733626666000659]'
p129
aS'[0.5950674906220494,0.5897189511065501,0.8398667997094472]'
p130
aS'[0.5964758952757412,0.5255053972786486,0.5463738200644142]'
p131
aS'[0.4653751875223237,0.46643753733963744,0.6131984372728855]'
p132
aS'[0.5543198334939363,0.5577382252163002,0.6960241490579286]'
p133
aS'[0.49253497813531333,0.483299717602837,0.5398476687646663]'
p134
aS'[0.4867018723221905,0.4637591455821476,0.6353801079650323]'
p135
aS'[0.5190273572897415,0.5011431978260913,0.6137074314218731]'
p136
aS'[0.4904112650023949,0.4823675134603173,0.6310164698887976]'
p137
aS'[0.5572827872542164,0.4361661987599428,0.6919319272846164]'
p138
aS'[0.5033060022246202,0.4222912931160661,0.5295832212920497]'
p139
aS'[0.6283046291307056,0.3709748152149071,0.6542751527526074]'
p140
aS'[0.5322912286354986,0.5339461418344444,0.5916542107707881]'
p141
aS'[0.544338539899124,0.4559708361544437,0.7211192843831628]'
p142
aS'[0.513930241575018,0.5377624663137944,0.6858150653919307]'
p143
aS'[0.4848977645276616,0.4973643899075259,0.47028598280065975]'
p144
aS'[0.46919820661667333,0.4290635987116992,0.49738719034287604]'
p145
aS'[0.5431576774968894,0.5392415623289095,0.5353038297791323]'
p146
aS'[0.511674777628136,0.5186196156068735,0.8062699475097228]'
p147
aS'[0.47560343622015455,0.4704098431253012,0.7549942975075826]'
p148
aS'[0.49416392330855946,0.5035546322068103,0.584940190285783]'
p149
aS'[0.5782039846998861,0.51264245281149,0.7807725443474338]'
p150
aS'[0.7010525331964387,0.5337720123503732,0.873030640664299]'
p151
aS'[0.5639216902884191,0.5716481618177341,0.7389520395270557]'
p152
aS'[0.4904244575420316,0.497793010905456,0.49386156544961907]'
p153
aS'[0.5296408972559447,0.5515552360343059,0.5870117056496548]'
p154
aS'[0.5716133738292878,0.5864474758359992,0.49206191180670134]'
p155
aS'[0.5214295505825807,0.5472361581171569,0.6078589261934253]'
p156
aS'[0.5225038991516269,0.5341585165876351,0.6384062135619054]'
p157
aS'[0.5966007559133144,0.516811374477185,0.6016209036625197]'
p158
aS'[0.46254169263889283,0.46667179346635007,0.6376288490123291]'
p159
aS'[0.5511867392914316,0.48213159346152895,0.534127471892835]'
p160
aS'[0.5683617168008289,0.611087897613047,0.6294018627204417]'
p161
aS'[0.49907502173522844,0.49871334490726743,0.5052849544571238]'
p162
aS'[0.5339820151485585,0.5075354173330056,0.6071751369782031]'
p163
aS'[0.5884493113566344,0.5987366870776085,0.7417420840594185]'
p164
aS'[0.5629550806812763,0.5815025944699869,0.8400423571153796]'
p165
aS'[0.5674172848173455,0.574564286088216,0.5729137230758276]'
p166
aS'[0.5909211425975837,0.5690232428485906,0.7945303961578826]'
p167
aS'[0.5070733187429501,0.5119724218015315,0.6012496714446185]'
p168
aS'[0.5772555355369688,0.7666881598971411,0.7646594996129902]'
p169
aS'[0.5926524239448928,0.5843930206885565,0.6984442063771658]'
p170
aS'[0.550241795372538,0.5290063272910931,0.4991126399990286]'
p171
aS'[0.5571361998137666,0.6204657924982758,0.581342137039913]'
p172
aS'[0.593146037314444,0.5432944212993541,0.6870629003085548]'
p173
aS'[0.5263205335082615,0.5189172424922927,0.6084819850380108]'
p174
aS'[0.552401485049162,0.5251933280852036,0.9603853738762399]'
p175
aS'[0.5512840868891877,0.5132408039397643,0.45316781843148857]'
p176
aS'[0.516377874775862,0.5312435250413093,0.5306752540526151]'
p177
aS'[0.6844759611526512,0.6880834202907878,0.6540597717592866]'
p178
aS'[0.5552581265018858,0.5117904634268708,0.7244453481562564]'
p179
aS'[0.5368566018653792,0.49778334977976363,0.5165158130934507]'
p180
aS'[0.5199366557852122,0.5312136403233094,0.6455993520416641]'
p181
aS'[0.5345811226672417,0.4914207405428031,0.6492617450415915]'
p182
aS'[0.5531014026572033,0.5554667757248052,0.8091019658744043]'
p183
aS'[0.5526139762933344,0.5695327224190013,0.6565029135995565]'
p184
aS'[0.5761315731109181,0.5344378119158548,0.6262140972405758]'
p185
aS'[0.5421241563155318,0.5318375101327171,0.5027479276730275]'
p186
aS'[0.5340443571030123,0.521728195555563,0.6606862779955253]'
p187
aS'[0.5072638021822065,0.525075703791791,0.4857650331505132]'
p188
aS'[0.5512943332563958,0.5649995698484171,0.6596890915176461]'
p189
aS'[0.5355927728130803,0.540408118931456,0.5958080486421424]'
p190
aS'[0.5026182267741347,0.38976570101902347,0.45733566331096914]'
p191
aS'[0.5349103454597888,0.5053938345530921,0.5935443575872235]'
p192
aS'[0.5462027296454458,0.5551182236006381,0.54537837135425]'
p193
aS'[0.5811746868454492,0.5985527828792859,0.5191497260698346]'
p194
aS'[0.52186276999921,0.55184991534546,0.6177948631084916]'
p195
aS'[0.5465028252338603,0.5512522489809285,0.54442506172582]'
p196
aS'[0.5246706154934164,0.5334718469297246,0.5129403361277183]'
p197
aS'[0.5180320260617922,0.49459386980257297,0.47734094236603397]'
p198
aS'[0.5448800812557354,0.5250853167328984,0.4774563553215677]'
p199
aS'[0.5944143076791286,0.4777288410538749,0.704701369172768]'
p200
a.